target datalayout = "e-m:e-p270:32:32-p271:32:32-p272:64:64-i64:64-i128:128-f80:128-n8:16:32:64-S128"
target triple = "x86_64-pc-linux-gnu"

%struct.channel_sequence_analysis_status = type { i8, i16, i32, i8, ptr }
%struct.rlc_channel_reassembly_info = type { i16, [100 x %struct.rlc_segment] }
%struct.rlc_segment = type { i32, i16, ptr, i16 }

; Function Attrs: nounwind null_pointer_is_valid sspstrong uwtable
define internal void @reassembly_destroy(ptr noundef %0) #4 {
  %2 = alloca ptr, align 8
  store ptr %0, ptr %2, align 8
  %3 = load ptr, ptr %2, align 8
  %4 = getelementptr inbounds nuw %struct.channel_sequence_analysis_status, ptr %3, i32 0, i32 4
  store ptr null, ptr %4, align 8
  ret void
}

; Function Attrs: null_pointer_is_valid sspstrong uwtable
define internal void @reassembly_add_segment(ptr noundef %0, i16 noundef zeroext %1, i32 noundef %2, ptr noundef %3, i32 noundef %4, i32 noundef %5) #0 {
  %7 = alloca ptr, align 8
  %8 = alloca i16, align 2
  %9 = alloca i32, align 4
  %10 = alloca ptr, align 8
  %11 = alloca i32, align 4
  %12 = alloca i32, align 4
  %13 = alloca i32, align 4
  %14 = alloca ptr, align 8
  %15 = alloca i32, align 4
  store ptr %0, ptr %7, align 8
  store i16 %1, ptr %8, align 2
  store i32 %2, ptr %9, align 4
  store ptr %3, ptr %10, align 8
  store i32 %4, ptr %11, align 4
  store i32 %5, ptr %12, align 4
  call void @llvm.lifetime.start.p0(i64 4, ptr %13) #16
  %16 = load ptr, ptr %7, align 8
  %17 = getelementptr inbounds nuw %struct.channel_sequence_analysis_status, ptr %16, i32 0, i32 4
  %18 = load ptr, ptr %17, align 8
  %19 = getelementptr inbounds nuw %struct.rlc_channel_reassembly_info, ptr %18, i32 0, i32 0
  %20 = load i16, ptr %19, align 8
  %21 = zext i16 %20 to i32
  store i32 %21, ptr %13, align 4
  call void @llvm.lifetime.start.p0(i64 8, ptr %14) #16
  %22 = load i32, ptr %13, align 4
  %23 = icmp sge i32 %22, 99
  br i1 %23, label %24, label %26

24:                                               ; preds = %6
  %25 = load ptr, ptr %7, align 8
  call void @reassembly_destroy(ptr noundef %25)
  store i32 1, ptr %15, align 4
  br label %76

26:                                               ; preds = %6
  %27 = call ptr @wmem_file_scope()
  %28 = load ptr, ptr %10, align 8
  %29 = load i32, ptr %11, align 4
  %30 = load i32, ptr %12, align 4
  %31 = sext i32 %30 to i64
  %32 = call ptr @tvb_memdup(ptr noundef %27, ptr noundef %28, i32 noundef %29, i64 noundef %31)
  store ptr %32, ptr %14, align 8
  %33 = load i32, ptr %9, align 4
  %34 = load ptr, ptr %7, align 8
  %35 = getelementptr inbounds nuw %struct.channel_sequence_analysis_status, ptr %34, i32 0, i32 4
  %36 = load ptr, ptr %35, align 8
  %37 = getelementptr inbounds nuw %struct.rlc_channel_reassembly_info, ptr %36, i32 0, i32 1
  %38 = load i32, ptr %13, align 4
  %39 = sext i32 %38 to i64
  %40 = getelementptr [100 x %struct.rlc_segment], ptr %37, i64 0, i64 %39
  %41 = getelementptr inbounds nuw %struct.rlc_segment, ptr %40, i32 0, i32 0
  store i32 %33, ptr %41, align 8
  %42 = load i16, ptr %8, align 2
  %43 = load ptr, ptr %7, align 8
  %44 = getelementptr inbounds nuw %struct.channel_sequence_analysis_status, ptr %43, i32 0, i32 4
  %45 = load ptr, ptr %44, align 8
  %46 = getelementptr inbounds nuw %struct.rlc_channel_reassembly_info, ptr %45, i32 0, i32 1
  %47 = load i32, ptr %13, align 4
  %48 = sext i32 %47 to i64
  %49 = getelementptr [100 x %struct.rlc_segment], ptr %46, i64 0, i64 %48
  %50 = getelementptr inbounds nuw %struct.rlc_segment, ptr %49, i32 0, i32 1
  store i16 %42, ptr %50, align 4
  %51 = load ptr, ptr %14, align 8
  %52 = load ptr, ptr %7, align 8
  %53 = getelementptr inbounds nuw %struct.channel_sequence_analysis_status, ptr %52, i32 0, i32 4
  %54 = load ptr, ptr %53, align 8
  %55 = getelementptr inbounds nuw %struct.rlc_channel_reassembly_info, ptr %54, i32 0, i32 1
  %56 = load i32, ptr %13, align 4
  %57 = sext i32 %56 to i64
  %58 = getelementptr [100 x %struct.rlc_segment], ptr %55, i64 0, i64 %57
  %59 = getelementptr inbounds nuw %struct.rlc_segment, ptr %58, i32 0, i32 2
  store ptr %51, ptr %59, align 8
  %60 = load i32, ptr %12, align 4
  %61 = trunc i32 %60 to i16
  %62 = load ptr, ptr %7, align 8
  %63 = getelementptr inbounds nuw %struct.channel_sequence_analysis_status, ptr %62, i32 0, i32 4
  %64 = load ptr, ptr %63, align 8
  %65 = getelementptr inbounds nuw %struct.rlc_channel_reassembly_info, ptr %64, i32 0, i32 1
  %66 = load i32, ptr %13, align 4
  %67 = sext i32 %66 to i64
  %68 = getelementptr [100 x %struct.rlc_segment], ptr %65, i64 0, i64 %67
  %69 = getelementptr inbounds nuw %struct.rlc_segment, ptr %68, i32 0, i32 3
  store i16 %61, ptr %69, align 8
  %70 = load ptr, ptr %7, align 8
  %71 = getelementptr inbounds nuw %struct.channel_sequence_analysis_status, ptr %70, i32 0, i32 4
  %72 = load ptr, ptr %71, align 8
  %73 = getelementptr inbounds nuw %struct.rlc_channel_reassembly_info, ptr %72, i32 0, i32 0
  %74 = load i16, ptr %73, align 8
  %75 = add i16 %74, 1
  store i16 %75, ptr %73, align 8
  store i32 0, ptr %15, align 4
  br label %76

76:                                               ; preds = %26, %24
  call void @llvm.lifetime.end.p0(i64 8, ptr %14) #16
  call void @llvm.lifetime.end.p0(i64 4, ptr %13) #16
  %77 = load i32, ptr %15, align 4
  switch i32 %77, label %79 [
    i32 0, label %78
    i32 1, label %78
  ]

78:                                               ; preds = %76, %76
  ret void

79:                                               ; preds = %76
  unreachable
}