; Function Attrs: null_pointer_is_valid sspstrong uwtable
define internal fastcc void @reassembly_add_segment(ptr noundef captures(none) %0, i16 noundef zeroext %1, i32 noundef %2, ptr noundef %3, i32 noundef range(i32 0, 65536) %4, i32 noundef range(i32 0, 65536) %5) unnamed_addr #0 {
  %7 = getelementptr inbounds nuw i8, ptr %0, i64 16
  %8 = load ptr, ptr %7, align 8
  %9 = load i16, ptr %8, align 8
  %10 = icmp ugt i16 %9, 98
  br i1 %10, label %11, label %12

11:                                               ; preds = %6
  store ptr null, ptr %7, align 8
  br label %33

12:                                               ; preds = %6
  %13 = tail call ptr @wmem_file_scope()
  %14 = zext nneg i32 %5 to i64
  %15 = tail call ptr @tvb_memdup(ptr noundef %13, ptr noundef %3, i32 noundef %4, i64 noundef %14)
  %16 = load ptr, ptr %7, align 8
  %17 = getelementptr inbounds nuw i8, ptr %16, i64 8
  %18 = zext nneg i16 %9 to i64
  %19 = getelementptr [100 x %struct.rlc_segment], ptr %17, i64 0, i64 %18
  store i32 %2, ptr %19, align 8
  %20 = load ptr, ptr %7, align 8
  %.idx = mul nuw nsw i64 %18, 24
  %21 = getelementptr i8, ptr %20, i64 12
  %22 = getelementptr i8, ptr %21, i64 %.idx
  store i16 %1, ptr %22, align 4
  %23 = load ptr, ptr %7, align 8
  %24 = getelementptr i8, ptr %23, i64 16
  %25 = getelementptr i8, ptr %24, i64 %.idx
  store ptr %15, ptr %25, align 8
  %26 = trunc nuw i32 %5 to i16
  %27 = load ptr, ptr %7, align 8
  %28 = getelementptr i8, ptr %27, i64 24
  %29 = getelementptr i8, ptr %28, i64 %.idx
  store i16 %26, ptr %29, align 8
  %30 = load ptr, ptr %7, align 8
  %31 = load i16, ptr %30, align 8
  %32 = add i16 %31, 1
  store i16 %32, ptr %30, align 8
  br label %33

33:                                               ; preds = %12, %11
  ret void
}